target datalayout = "e-m:e-p270:32:32-p271:32:32-p272:64:64-i64:64-i128:128-f80:128-n8:16:32:64-S128"
target triple = "x86_64-pc-linux-gnu"

%"struct.cv::UMatData" = type { ptr, ptr, i32, i32, ptr, ptr, i64, i32, ptr, ptr, i32, i32, ptr, %"class.std::shared_ptr" }
%"class.std::shared_ptr" = type { %"class.std::__shared_ptr" }
%"class.std::__shared_ptr" = type { ptr, %"class.std::__shared_count" }
%"class.std::__shared_count" = type { ptr }
%"class.cv::Mat" = type { i32, i32, i32, i32, ptr, ptr, ptr, ptr, ptr, ptr, %"struct.cv::MatSize", %"struct.cv::MatStep" }
%"struct.cv::MatSize" = type { ptr }
%"struct.cv::MatStep" = type { ptr, [2 x i64] }

@_ZZN2cvL25getDefaultAllocatorMatRefEvE14g_matAllocator = internal global ptr null, align 8
@_ZGVZN2cvL25getDefaultAllocatorMatRefEvE14g_matAllocator = internal global i64 0, align 8

; Function Attrs: mustprogress uwtable
define internal noundef nonnull align 8 dereferenceable(8) ptr @_ZN2cvL25getDefaultAllocatorMatRefEv() #1 personality ptr @__gxx_personality_v0 {
  %1 = alloca ptr, align 8
  %2 = alloca i32, align 4
  %3 = load atomic i8, ptr @_ZGVZN2cvL25getDefaultAllocatorMatRefEvE14g_matAllocator acquire, align 8
  %4 = icmp eq i8 %3, 0
  br i1 %4, label %5, label %11, !prof !58

5:                                                ; preds = %0
  %6 = call i32 @__cxa_guard_acquire(ptr @_ZGVZN2cvL25getDefaultAllocatorMatRefEvE14g_matAllocator) #7
  %7 = icmp ne i32 %6, 0
  br i1 %7, label %8, label %11

8:                                                ; preds = %5
  %9 = invoke noundef ptr @_ZN2cv3Mat15getStdAllocatorEv()
          to label %10 unwind label %12

10:                                               ; preds = %8
  store ptr %9, ptr @_ZZN2cvL25getDefaultAllocatorMatRefEvE14g_matAllocator, align 8, !tbaa !3
  call void @__cxa_guard_release(ptr @_ZGVZN2cvL25getDefaultAllocatorMatRefEvE14g_matAllocator) #7
  br label %11

11:                                               ; preds = %10, %5, %0
  ret ptr @_ZZN2cvL25getDefaultAllocatorMatRefEvE14g_matAllocator

12:                                               ; preds = %8
  %13 = landingpad { ptr, i32 }
          cleanup
  %14 = extractvalue { ptr, i32 } %13, 0
  store ptr %14, ptr %1, align 8
  %15 = extractvalue { ptr, i32 } %13, 1
  store i32 %15, ptr %2, align 4
  call void @__cxa_guard_abort(ptr @_ZGVZN2cvL25getDefaultAllocatorMatRefEvE14g_matAllocator) #7
  br label %16

16:                                               ; preds = %12
  %17 = load ptr, ptr %1, align 8
  %18 = load i32, ptr %2, align 4
  %19 = insertvalue { ptr, i32 } poison, ptr %17, 0
  %20 = insertvalue { ptr, i32 } %19, i32 %18, 1
  resume { ptr, i32 } %20
}

; Function Attrs: mustprogress uwtable
define noundef ptr @_ZN2cv3Mat19getDefaultAllocatorEv() #1 align 2 {
  %1 = call noundef nonnull align 8 dereferenceable(8) ptr @_ZN2cvL25getDefaultAllocatorMatRefEv()
  %2 = load ptr, ptr %1, align 8, !tbaa !3
  ret ptr %2
}

; Function Attrs: mustprogress uwtable
define void @_ZN2cv3Mat10deallocateEv(ptr noundef nonnull align 8 dereferenceable(96) %0) #1 align 2 {
  %2 = alloca ptr, align 8
  %3 = alloca ptr, align 8
  store ptr %0, ptr %2, align 8, !tbaa !34
  %4 = load ptr, ptr %2, align 8
  %5 = getelementptr inbounds nuw %"class.cv::Mat", ptr %4, i32 0, i32 9
  %6 = load ptr, ptr %5, align 8, !tbaa !88
  %7 = icmp ne ptr %6, null
  br i1 %7, label %8, label %37

8:                                                ; preds = %1
  call void @llvm.lifetime.start.p0(i64 8, ptr %3) #7
  %9 = getelementptr inbounds nuw %"class.cv::Mat", ptr %4, i32 0, i32 9
  %10 = load ptr, ptr %9, align 8, !tbaa !88
  store ptr %10, ptr %3, align 8, !tbaa !8
  %11 = getelementptr inbounds nuw %"class.cv::Mat", ptr %4, i32 0, i32 9
  store ptr null, ptr %11, align 8, !tbaa !88
  %12 = load ptr, ptr %3, align 8, !tbaa !8
  %13 = getelementptr inbounds nuw %"struct.cv::UMatData", ptr %12, i32 0, i32 1
  %14 = load ptr, ptr %13, align 8, !tbaa !109
  %15 = icmp ne ptr %14, null
  br i1 %15, label %16, label %20

16:                                               ; preds = %8
  %17 = load ptr, ptr %3, align 8, !tbaa !8
  %18 = getelementptr inbounds nuw %"struct.cv::UMatData", ptr %17, i32 0, i32 1
  %19 = load ptr, ptr %18, align 8, !tbaa !109
  br label %31

20:                                               ; preds = %8
  %21 = getelementptr inbounds nuw %"class.cv::Mat", ptr %4, i32 0, i32 8
  %22 = load ptr, ptr %21, align 8, !tbaa !94
  %23 = icmp ne ptr %22, null
  br i1 %23, label %24, label %27

24:                                               ; preds = %20
  %25 = getelementptr inbounds nuw %"class.cv::Mat", ptr %4, i32 0, i32 8
  %26 = load ptr, ptr %25, align 8, !tbaa !94
  br label %29

27:                                               ; preds = %20
  %28 = call noundef ptr @_ZN2cv3Mat19getDefaultAllocatorEv()
  br label %29

29:                                               ; preds = %27, %24
  %30 = phi ptr [ %26, %24 ], [ %28, %27 ]
  br label %31

31:                                               ; preds = %29, %16
  %32 = phi ptr [ %19, %16 ], [ %30, %29 ]
  %33 = load ptr, ptr %3, align 8, !tbaa !8
  %34 = load ptr, ptr %32, align 8, !tbaa !23
  %35 = getelementptr inbounds ptr, ptr %34, i64 6
  %36 = load ptr, ptr %35, align 8
  call void %36(ptr noundef nonnull align 8 dereferenceable(8) %32, ptr noundef %33)
  call void @llvm.lifetime.end.p0(i64 8, ptr %3) #7
  br label %37

37:                                               ; preds = %31, %1
  ret void
}