; Function Attrs: mustprogress uwtable
define void @_ZN2cv3Mat10deallocateEv(ptr noundef nonnull align 8 captures(none) dereferenceable(96) %0) local_unnamed_addr #1 align 2 personality ptr @__gxx_personality_v0 {
  %2 = getelementptr inbounds nuw i8, ptr %0, i64 56
  %3 = load ptr, ptr %2, align 8, !tbaa !66
  %.not = icmp eq ptr %3, null
  br i1 %.not, label %26, label %4

4:                                                ; preds = %1
  store ptr null, ptr %2, align 8, !tbaa !66
  %5 = getelementptr inbounds nuw i8, ptr %3, i64 8
  %6 = load ptr, ptr %5, align 8, !tbaa !79
  %.not6 = icmp eq ptr %6, null
  br i1 %.not6, label %7, label %21

7:                                                ; preds = %4
  %8 = getelementptr inbounds nuw i8, ptr %0, i64 48
  %9 = load ptr, ptr %8, align 8, !tbaa !74
  %.not7 = icmp eq ptr %9, null
  br i1 %.not7, label %10, label %21

10:                                               ; preds = %7
  %11 = load atomic i8, ptr @_ZGVZN2cvL25getDefaultAllocatorMatRefEvE14g_matAllocator acquire, align 8
  %12 = icmp eq i8 %11, 0
  br i1 %12, label %13, label %_ZN2cv3Mat19getDefaultAllocatorEv.exit, !prof !47

13:                                               ; preds = %10
  %14 = tail call i32 @__cxa_guard_acquire(ptr nonnull @_ZGVZN2cvL25getDefaultAllocatorMatRefEvE14g_matAllocator) #24
  %.not.i.i = icmp eq i32 %14, 0
  br i1 %.not.i.i, label %_ZN2cv3Mat19getDefaultAllocatorEv.exit, label %15

15:                                               ; preds = %13
  %16 = invoke noundef ptr @_ZN2cv3Mat15getStdAllocatorEv()
          to label %17 unwind label %18

17:                                               ; preds = %15
  store ptr %16, ptr @_ZZN2cvL25getDefaultAllocatorMatRefEvE14g_matAllocator, align 8, !tbaa !48
  tail call void @__cxa_guard_release(ptr nonnull @_ZGVZN2cvL25getDefaultAllocatorMatRefEvE14g_matAllocator) #24
  br label %_ZN2cv3Mat19getDefaultAllocatorEv.exit

18:                                               ; preds = %15
  %19 = landingpad { ptr, i32 }
          cleanup
  tail call void @__cxa_guard_abort(ptr nonnull @_ZGVZN2cvL25getDefaultAllocatorMatRefEvE14g_matAllocator) #24
  resume { ptr, i32 } %19

_ZN2cv3Mat19getDefaultAllocatorEv.exit:           ; preds = %10, %13, %17
  %20 = load ptr, ptr @_ZZN2cvL25getDefaultAllocatorMatRefEvE14g_matAllocator, align 8, !tbaa !48
  br label %21

21:                                               ; preds = %7, %4, %_ZN2cv3Mat19getDefaultAllocatorEv.exit
  %22 = phi ptr [ %20, %_ZN2cv3Mat19getDefaultAllocatorEv.exit ], [ %6, %4 ], [ %9, %7 ]
  %23 = load ptr, ptr %22, align 8, !tbaa !19
  %24 = getelementptr inbounds nuw i8, ptr %23, i64 48
  %25 = load ptr, ptr %24, align 8
  tail call void %25(ptr noundef nonnull align 8 dereferenceable(8) %22, ptr noundef nonnull %3)
  br label %26

26:                                               ; preds = %21, %1
  ret void
}